; Function Attrs: nounwind uwtable
define hidden i32 @jHasMultScn(ptr noundef %0) local_unnamed_addr #0 {
  %2 = getelementptr inbounds i8, ptr %0, i64 36
  %3 = load i32, ptr %2, align 4
  %4 = add i32 %3, -211
  %or.cond = icmp ult i32 %4, -9
  br i1 %or.cond, label %5, label %13

5:                                                ; preds = %1
  %6 = load ptr, ptr %0, align 8
  %7 = getelementptr inbounds i8, ptr %6, i64 40
  store i32 20, ptr %7, align 8
  %8 = load i32, ptr %2, align 4
  %9 = load ptr, ptr %0, align 8
  %10 = getelementptr inbounds i8, ptr %9, i64 44
  store i32 %8, ptr %10, align 4
  %11 = load ptr, ptr %0, align 8
  %12 = load ptr, ptr %11, align 8
  tail call void %12(ptr noundef nonnull %0) #3
  br label %13

13:                                               ; preds = %1, %5
  %14 = getelementptr inbounds i8, ptr %0, i64 576
  %15 = load ptr, ptr %14, align 8
  %16 = getelementptr inbounds i8, ptr %15, i64 32
  %17 = load i32, ptr %16, align 8
  ret i32 %17
}